target datalayout = "e-m:e-p270:32:32-p271:32:32-p272:64:64-i64:64-i128:128-f80:128-n8:16:32:64-S128"
target triple = "x86_64-pc-linux-gnu"

%struct._SPI_connection = type { i64, ptr, i32, %struct.slist_head, ptr, ptr, ptr, i32, ptr, i8, i8, i64, ptr, i32 }
%struct.slist_head = type { %struct.slist_node }
%struct.slist_node = type { ptr }
%struct.TupleDescData = type { i32, i32, i32, i32, ptr, [0 x %struct.CompactAttribute] }
%struct.CompactAttribute = type { i32, i16, i8, i8, i8, i8, i8, i8, i8 }
%struct.RelationData = type { %struct.RelFileLocator, ptr, i32, i32, i8, i8, i8, i8, i8, i32, i32, i32, i32, ptr, ptr, i32, %struct.LockInfoData, ptr, ptr, ptr, ptr, ptr, i8, ptr, ptr, ptr, ptr, ptr, ptr, i32, ptr, i8, ptr, ptr, i32, i8, i32, ptr, i8, ptr, ptr, ptr, ptr, ptr, ptr, ptr, i32, ptr, ptr, ptr, ptr, ptr, ptr, ptr, ptr, ptr, ptr, ptr, ptr, ptr, ptr, ptr, ptr, ptr, ptr, ptr, i32, i8, ptr }
%struct.RelFileLocator = type { i32, i32, i32 }
%struct.LockInfoData = type { %struct.LockRelId }
%struct.LockRelId = type { i32, i32 }
%struct.HeapTupleData = type { i32, %struct.ItemPointerData, i32, ptr }
%struct.ItemPointerData = type { %struct.BlockIdData, i16 }
%struct.BlockIdData = type { i16, i16 }
%struct.HeapTupleHeaderData = type { %union.anon, %struct.ItemPointerData, i16, i16, i8, [0 x i8] }
%union.anon = type { %struct.HeapTupleFields }
%struct.HeapTupleFields = type { i32, i32, %union.anon.0 }
%union.anon.0 = type { i32 }

@SPI_result = dso_local global i32 0, align 4
@_SPI_current = internal global ptr null, align 8
@CurrentMemoryContext = external global ptr, align 8

; Function Attrs: inlinehint nounwind uwtable
define internal ptr @MemoryContextSwitchTo(ptr noundef %0) #4 {
  %2 = alloca ptr, align 8
  %3 = alloca ptr, align 8
  store ptr %0, ptr %2, align 8
  call void @llvm.lifetime.start.p0(i64 8, ptr %3) #9
  %4 = load ptr, ptr @CurrentMemoryContext, align 8
  store ptr %4, ptr %3, align 8
  %5 = load ptr, ptr %2, align 8
  store ptr %5, ptr @CurrentMemoryContext, align 8
  %6 = load ptr, ptr %3, align 8
  call void @llvm.lifetime.end.p0(i64 8, ptr %3) #9
  ret ptr %6
}

; Function Attrs: nounwind uwtable
define dso_local ptr @SPI_modifytuple(ptr noundef %0, ptr noundef %1, i32 noundef %2, ptr noundef %3, ptr noundef %4, ptr noundef %5) #0 {
  %7 = alloca ptr, align 8
  %8 = alloca ptr, align 8
  %9 = alloca ptr, align 8
  %10 = alloca i32, align 4
  %11 = alloca ptr, align 8
  %12 = alloca ptr, align 8
  %13 = alloca ptr, align 8
  %14 = alloca ptr, align 8
  %15 = alloca ptr, align 8
  %16 = alloca i32, align 4
  %17 = alloca ptr, align 8
  %18 = alloca ptr, align 8
  %19 = alloca i32, align 4
  %20 = alloca i32, align 4
  store ptr %0, ptr %8, align 8
  store ptr %1, ptr %9, align 8
  store i32 %2, ptr %10, align 4
  store ptr %3, ptr %11, align 8
  store ptr %4, ptr %12, align 8
  store ptr %5, ptr %13, align 8
  call void @llvm.lifetime.start.p0(i64 8, ptr %14) #9
  call void @llvm.lifetime.start.p0(i64 8, ptr %15) #9
  call void @llvm.lifetime.start.p0(i64 4, ptr %16) #9
  call void @llvm.lifetime.start.p0(i64 8, ptr %17) #9
  call void @llvm.lifetime.start.p0(i64 8, ptr %18) #9
  call void @llvm.lifetime.start.p0(i64 4, ptr %19) #9
  %21 = load ptr, ptr %8, align 8
  %22 = icmp eq ptr %21, null
  br i1 %22, label %35, label %23

23:                                               ; preds = %6
  %24 = load ptr, ptr %9, align 8
  %25 = icmp eq ptr %24, null
  br i1 %25, label %35, label %26

26:                                               ; preds = %23
  %27 = load i32, ptr %10, align 4
  %28 = icmp slt i32 %27, 0
  br i1 %28, label %35, label %29

29:                                               ; preds = %26
  %30 = load ptr, ptr %11, align 8
  %31 = icmp eq ptr %30, null
  br i1 %31, label %35, label %32

32:                                               ; preds = %29
  %33 = load ptr, ptr %12, align 8
  %34 = icmp eq ptr %33, null
  br i1 %34, label %35, label %36

35:                                               ; preds = %32, %29, %26, %23, %6
  store i32 -6, ptr @SPI_result, align 4
  store ptr null, ptr %7, align 8
  store i32 1, ptr %20, align 4
  br label %159

36:                                               ; preds = %32
  %37 = load ptr, ptr @_SPI_current, align 8
  %38 = icmp eq ptr %37, null
  br i1 %38, label %39, label %40

39:                                               ; preds = %36
  store i32 -4, ptr @SPI_result, align 4
  store ptr null, ptr %7, align 8
  store i32 1, ptr %20, align 4
  br label %159

40:                                               ; preds = %36
  %41 = load ptr, ptr @_SPI_current, align 8
  %42 = getelementptr inbounds nuw %struct._SPI_connection, ptr %41, i32 0, i32 6
  %43 = load ptr, ptr %42, align 8
  %44 = call ptr @MemoryContextSwitchTo(ptr noundef %43)
  store ptr %44, ptr %14, align 8
  store i32 0, ptr @SPI_result, align 4
  %45 = load ptr, ptr %8, align 8
  %46 = getelementptr inbounds nuw %struct.RelationData, ptr %45, i32 0, i32 14
  %47 = load ptr, ptr %46, align 8
  %48 = getelementptr inbounds nuw %struct.TupleDescData, ptr %47, i32 0, i32 0
  %49 = load i32, ptr %48, align 8
  store i32 %49, ptr %16, align 4
  %50 = load i32, ptr %16, align 4
  %51 = sext i32 %50 to i64
  %52 = mul i64 %51, 8
  %53 = call ptr @palloc(i64 noundef %52)
  store ptr %53, ptr %17, align 8
  %54 = load i32, ptr %16, align 4
  %55 = sext i32 %54 to i64
  %56 = mul i64 %55, 1
  %57 = call ptr @palloc(i64 noundef %56)
  store ptr %57, ptr %18, align 8
  %58 = load ptr, ptr %9, align 8
  %59 = load ptr, ptr %8, align 8
  %60 = getelementptr inbounds nuw %struct.RelationData, ptr %59, i32 0, i32 14
  %61 = load ptr, ptr %60, align 8
  %62 = load ptr, ptr %17, align 8
  %63 = load ptr, ptr %18, align 8
  call void @heap_deform_tuple(ptr noundef %58, ptr noundef %61, ptr noundef %62, ptr noundef %63)
  store i32 0, ptr %19, align 4
  br label %64

64:                                               ; preds = %121, %40
  %65 = load i32, ptr %19, align 4
  %66 = load i32, ptr %10, align 4
  %67 = icmp slt i32 %65, %66
  br i1 %67, label %68, label %124

68:                                               ; preds = %64
  %69 = load ptr, ptr %11, align 8
  %70 = load i32, ptr %19, align 4
  %71 = sext i32 %70 to i64
  %72 = getelementptr inbounds i32, ptr %69, i64 %71
  %73 = load i32, ptr %72, align 4
  %74 = icmp sle i32 %73, 0
  br i1 %74, label %83, label %75

75:                                               ; preds = %68
  %76 = load ptr, ptr %11, align 8
  %77 = load i32, ptr %19, align 4
  %78 = sext i32 %77 to i64
  %79 = getelementptr inbounds i32, ptr %76, i64 %78
  %80 = load i32, ptr %79, align 4
  %81 = load i32, ptr %16, align 4
  %82 = icmp sgt i32 %80, %81
  br i1 %82, label %83, label %84

83:                                               ; preds = %75, %68
  br label %124

84:                                               ; preds = %75
  %85 = load ptr, ptr %12, align 8
  %86 = load i32, ptr %19, align 4
  %87 = sext i32 %86 to i64
  %88 = getelementptr inbounds i64, ptr %85, i64 %87
  %89 = load i64, ptr %88, align 8
  %90 = load ptr, ptr %17, align 8
  %91 = load ptr, ptr %11, align 8
  %92 = load i32, ptr %19, align 4
  %93 = sext i32 %92 to i64
  %94 = getelementptr inbounds i32, ptr %91, i64 %93
  %95 = load i32, ptr %94, align 4
  %96 = sub i32 %95, 1
  %97 = sext i32 %96 to i64
  %98 = getelementptr inbounds i64, ptr %90, i64 %97
  store i64 %89, ptr %98, align 8
  %99 = load ptr, ptr %13, align 8
  %100 = icmp ne ptr %99, null
  br i1 %100, label %101, label %109

101:                                              ; preds = %84
  %102 = load ptr, ptr %13, align 8
  %103 = load i32, ptr %19, align 4
  %104 = sext i32 %103 to i64
  %105 = getelementptr inbounds i8, ptr %102, i64 %104
  %106 = load i8, ptr %105, align 1
  %107 = sext i8 %106 to i32
  %108 = icmp eq i32 %107, 110
  br label %109

109:                                              ; preds = %101, %84
  %110 = phi i1 [ false, %84 ], [ %108, %101 ]
  %111 = load ptr, ptr %18, align 8
  %112 = load ptr, ptr %11, align 8
  %113 = load i32, ptr %19, align 4
  %114 = sext i32 %113 to i64
  %115 = getelementptr inbounds i32, ptr %112, i64 %114
  %116 = load i32, ptr %115, align 4
  %117 = sub i32 %116, 1
  %118 = sext i32 %117 to i64
  %119 = getelementptr inbounds i8, ptr %111, i64 %118
  %120 = zext i1 %110 to i8
  store i8 %120, ptr %119, align 1
  br label %121

121:                                              ; preds = %109
  %122 = load i32, ptr %19, align 4
  %123 = add i32 %122, 1
  store i32 %123, ptr %19, align 4
  br label %64, !llvm.loop !20

124:                                              ; preds = %83, %64
  %125 = load i32, ptr %19, align 4
  %126 = load i32, ptr %10, align 4
  %127 = icmp eq i32 %125, %126
  br i1 %127, label %128, label %152

128:                                              ; preds = %124
  %129 = load ptr, ptr %8, align 8
  %130 = getelementptr inbounds nuw %struct.RelationData, ptr %129, i32 0, i32 14
  %131 = load ptr, ptr %130, align 8
  %132 = load ptr, ptr %17, align 8
  %133 = load ptr, ptr %18, align 8
  %134 = call ptr @heap_form_tuple(ptr noundef %131, ptr noundef %132, ptr noundef %133)
  store ptr %134, ptr %15, align 8
  %135 = load ptr, ptr %15, align 8
  %136 = getelementptr inbounds nuw %struct.HeapTupleData, ptr %135, i32 0, i32 3
  %137 = load ptr, ptr %136, align 8
  %138 = getelementptr inbounds nuw %struct.HeapTupleHeaderData, ptr %137, i32 0, i32 1
  %139 = load ptr, ptr %9, align 8
  %140 = getelementptr inbounds nuw %struct.HeapTupleData, ptr %139, i32 0, i32 3
  %141 = load ptr, ptr %140, align 8
  %142 = getelementptr inbounds nuw %struct.HeapTupleHeaderData, ptr %141, i32 0, i32 1
  call void @llvm.memcpy.p0.p0.i64(ptr align 4 %138, ptr align 4 %142, i64 6, i1 false)
  %143 = load ptr, ptr %15, align 8
  %144 = getelementptr inbounds nuw %struct.HeapTupleData, ptr %143, i32 0, i32 1
  %145 = load ptr, ptr %9, align 8
  %146 = getelementptr inbounds nuw %struct.HeapTupleData, ptr %145, i32 0, i32 1
  call void @llvm.memcpy.p0.p0.i64(ptr align 4 %144, ptr align 4 %146, i64 6, i1 false)
  %147 = load ptr, ptr %9, align 8
  %148 = getelementptr inbounds nuw %struct.HeapTupleData, ptr %147, i32 0, i32 2
  %149 = load i32, ptr %148, align 4
  %150 = load ptr, ptr %15, align 8
  %151 = getelementptr inbounds nuw %struct.HeapTupleData, ptr %150, i32 0, i32 2
  store i32 %149, ptr %151, align 4
  br label %153

152:                                              ; preds = %124
  store ptr null, ptr %15, align 8
  store i32 -9, ptr @SPI_result, align 4
  br label %153

153:                                              ; preds = %152, %128
  %154 = load ptr, ptr %17, align 8
  call void @pfree(ptr noundef %154)
  %155 = load ptr, ptr %18, align 8
  call void @pfree(ptr noundef %155)
  %156 = load ptr, ptr %14, align 8
  %157 = call ptr @MemoryContextSwitchTo(ptr noundef %156)
  %158 = load ptr, ptr %15, align 8
  store ptr %158, ptr %7, align 8
  store i32 1, ptr %20, align 4
  br label %159

159:                                              ; preds = %153, %39, %35
  call void @llvm.lifetime.end.p0(i64 4, ptr %19) #9
  call void @llvm.lifetime.end.p0(i64 8, ptr %18) #9
  call void @llvm.lifetime.end.p0(i64 8, ptr %17) #9
  call void @llvm.lifetime.end.p0(i64 4, ptr %16) #9
  call void @llvm.lifetime.end.p0(i64 8, ptr %15) #9
  call void @llvm.lifetime.end.p0(i64 8, ptr %14) #9
  %160 = load ptr, ptr %7, align 8
  ret ptr %160
}