; Function Attrs: nounwind uwtable
define dso_local ptr @SPI_modifytuple(ptr noundef readonly captures(address_is_null) %0, ptr noundef %1, i32 noundef %2, ptr noundef readonly captures(address_is_null) %3, ptr noundef readonly captures(address_is_null) %4, ptr noundef readonly captures(address_is_null) %5) local_unnamed_addr #0 {
  %7 = icmp eq ptr %0, null
  %8 = icmp eq ptr %1, null
  %or.cond = or i1 %7, %8
  %9 = icmp slt i32 %2, 0
  %or.cond3 = or i1 %or.cond, %9
  %10 = icmp eq ptr %3, null
  %or.cond5 = or i1 %or.cond3, %10
  %11 = icmp eq ptr %4, null
  %or.cond7 = or i1 %or.cond5, %11
  br i1 %or.cond7, label %12, label %13

12:                                               ; preds = %6
  store i32 -6, ptr @SPI_result, align 4
  br label %75

13:                                               ; preds = %6
  %14 = load ptr, ptr @_SPI_current, align 8
  %15 = icmp eq ptr %14, null
  br i1 %15, label %16, label %17

16:                                               ; preds = %13
  store i32 -4, ptr @SPI_result, align 4
  br label %75

17:                                               ; preds = %13
  %18 = getelementptr inbounds nuw i8, ptr %14, i64 48
  %19 = load ptr, ptr %18, align 8
  %20 = load ptr, ptr @CurrentMemoryContext, align 8
  store ptr %19, ptr @CurrentMemoryContext, align 8
  store i32 0, ptr @SPI_result, align 4
  %21 = getelementptr inbounds nuw i8, ptr %0, i64 64
  %22 = load ptr, ptr %21, align 8
  %23 = load i32, ptr %22, align 8
  %24 = sext i32 %23 to i64
  %25 = shl nsw i64 %24, 3
  %26 = tail call ptr @palloc(i64 noundef %25) #15
  %27 = tail call ptr @palloc(i64 noundef %24) #15
  %28 = load ptr, ptr %21, align 8
  tail call void @heap_deform_tuple(ptr noundef nonnull %1, ptr noundef %28, ptr noundef %26, ptr noundef %27) #15
  %invariant.gep = getelementptr i8, ptr %26, i64 -8
  %.not81 = icmp eq i32 %2, 0
  br i1 %.not81, label %._crit_edge, label %.lr.ph

.lr.ph:                                           ; preds = %17
  %.not = icmp eq ptr %5, null
  %wide.trip.count73 = zext nneg i32 %2 to i64
  br i1 %.not, label %.lr.ph.split.us, label %.lr.ph.split

.lr.ph.split.us:                                  ; preds = %.lr.ph, %33
  %indvars.iv70 = phi i64 [ %indvars.iv.next71, %33 ], [ 0, %.lr.ph ]
  %29 = getelementptr inbounds nuw i32, ptr %3, i64 %indvars.iv70
  %30 = load i32, ptr %29, align 4
  %31 = icmp slt i32 %30, 1
  %32 = icmp sgt i32 %30, %23
  %or.cond62.us = or i1 %31, %32
  br i1 %or.cond62.us, label %._crit_edge.loopexit, label %33

33:                                               ; preds = %.lr.ph.split.us
  %34 = getelementptr inbounds nuw i64, ptr %4, i64 %indvars.iv70
  %35 = load i64, ptr %34, align 8
  %36 = zext nneg i32 %30 to i64
  %gep.us = getelementptr i64, ptr %invariant.gep, i64 %36
  store i64 %35, ptr %gep.us, align 8
  %37 = load i32, ptr %29, align 4
  %38 = add i32 %37, -1
  %39 = sext i32 %38 to i64
  %40 = getelementptr inbounds i8, ptr %27, i64 %39
  store i8 0, ptr %40, align 1
  %indvars.iv.next71 = add nuw nsw i64 %indvars.iv70, 1
  %exitcond74.not = icmp eq i64 %indvars.iv.next71, %wide.trip.count73
  br i1 %exitcond74.not, label %._crit_edge.thread, label %.lr.ph.split.us, !llvm.loop !10

.lr.ph.split:                                     ; preds = %.lr.ph, %45
  %indvars.iv = phi i64 [ %indvars.iv.next, %45 ], [ 0, %.lr.ph ]
  %41 = getelementptr inbounds nuw i32, ptr %3, i64 %indvars.iv
  %42 = load i32, ptr %41, align 4
  %43 = icmp slt i32 %42, 1
  %44 = icmp sgt i32 %42, %23
  %or.cond62 = or i1 %43, %44
  br i1 %or.cond62, label %._crit_edge.loopexit76, label %45

45:                                               ; preds = %.lr.ph.split
  %46 = getelementptr inbounds nuw i64, ptr %4, i64 %indvars.iv
  %47 = load i64, ptr %46, align 8
  %48 = zext nneg i32 %42 to i64
  %gep = getelementptr i64, ptr %invariant.gep, i64 %48
  store i64 %47, ptr %gep, align 8
  %49 = getelementptr inbounds nuw i8, ptr %5, i64 %indvars.iv
  %50 = load i8, ptr %49, align 1
  %51 = icmp eq i8 %50, 110
  %52 = zext i1 %51 to i8
  %53 = load i32, ptr %41, align 4
  %54 = add i32 %53, -1
  %55 = sext i32 %54 to i64
  %56 = getelementptr inbounds i8, ptr %27, i64 %55
  store i8 %52, ptr %56, align 1
  %indvars.iv.next = add nuw nsw i64 %indvars.iv, 1
  %exitcond.not = icmp eq i64 %indvars.iv.next, %wide.trip.count73
  br i1 %exitcond.not, label %._crit_edge.thread, label %.lr.ph.split, !llvm.loop !10

._crit_edge.loopexit:                             ; preds = %.lr.ph.split.us
  %57 = trunc nuw nsw i64 %indvars.iv70 to i32
  br label %._crit_edge

._crit_edge.loopexit76:                           ; preds = %.lr.ph.split
  %58 = trunc nuw nsw i64 %indvars.iv to i32
  br label %._crit_edge

._crit_edge:                                      ; preds = %._crit_edge.loopexit76, %._crit_edge.loopexit, %17
  %.0.lcssa = phi i32 [ 0, %17 ], [ %57, %._crit_edge.loopexit ], [ %58, %._crit_edge.loopexit76 ]
  %59 = icmp eq i32 %.0.lcssa, %2
  br i1 %59, label %._crit_edge.thread, label %73

._crit_edge.thread:                               ; preds = %45, %33, %._crit_edge
  %60 = load ptr, ptr %21, align 8
  %61 = tail call ptr @heap_form_tuple(ptr noundef %60, ptr noundef %26, ptr noundef %27) #15
  %62 = getelementptr inbounds nuw i8, ptr %61, i64 16
  %63 = load ptr, ptr %62, align 8
  %64 = getelementptr inbounds nuw i8, ptr %63, i64 12
  %65 = getelementptr inbounds nuw i8, ptr %1, i64 16
  %66 = load ptr, ptr %65, align 8
  %67 = getelementptr inbounds nuw i8, ptr %66, i64 12
  tail call void @llvm.memcpy.p0.p0.i64(ptr noundef nonnull align 4 dereferenceable(6) %64, ptr noundef nonnull align 4 dereferenceable(6) %67, i64 6, i1 false)
  %68 = getelementptr inbounds nuw i8, ptr %61, i64 4
  %69 = getelementptr inbounds nuw i8, ptr %1, i64 4
  tail call void @llvm.memcpy.p0.p0.i64(ptr noundef nonnull align 4 dereferenceable(6) %68, ptr noundef nonnull align 4 dereferenceable(6) %69, i64 6, i1 false)
  %70 = getelementptr inbounds nuw i8, ptr %1, i64 12
  %71 = load i32, ptr %70, align 4
  %72 = getelementptr inbounds nuw i8, ptr %61, i64 12
  store i32 %71, ptr %72, align 4
  br label %74

73:                                               ; preds = %._crit_edge
  store i32 -9, ptr @SPI_result, align 4
  br label %74

74:                                               ; preds = %73, %._crit_edge.thread
  %.054 = phi ptr [ %61, %._crit_edge.thread ], [ null, %73 ]
  tail call void @pfree(ptr noundef %26) #15
  tail call void @pfree(ptr noundef %27) #15
  store ptr %20, ptr @CurrentMemoryContext, align 8
  br label %75

75:                                               ; preds = %74, %16, %12
  %.053 = phi ptr [ null, %12 ], [ null, %16 ], [ %.054, %74 ]
  ret ptr %.053
}